; Function Attrs: nounwind uwtable
define dso_local noundef zeroext i1 @ExecParallelScanHashBucket(ptr noundef captures(none) %0, ptr noundef %1) local_unnamed_addr #0 {
  %3 = alloca i8, align 1
  %4 = getelementptr inbounds nuw i8, ptr %0, i64 216
  %5 = load ptr, ptr %4, align 8
  %.fr50 = freeze ptr %5
  %6 = getelementptr inbounds nuw i8, ptr %0, i64 232
  %7 = load ptr, ptr %6, align 8
  %8 = getelementptr inbounds nuw i8, ptr %0, i64 256
  %9 = load ptr, ptr %8, align 8
  %10 = getelementptr inbounds nuw i8, ptr %0, i64 240
  %11 = load i32, ptr %10, align 8
  %.not = icmp eq ptr %9, null
  br i1 %.not, label %15, label %12

12:                                               ; preds = %2
  %13 = getelementptr i8, ptr %7, i64 208
  %.val = load ptr, ptr %13, align 8
  %.val28 = load i64, ptr %9, align 8
  %14 = tail call ptr @dsa_get_address(ptr noundef %.val, i64 noundef %.val28) #16
  br label %26

15:                                               ; preds = %2
  %16 = getelementptr inbounds nuw i8, ptr %0, i64 244
  %17 = load i32, ptr %16, align 4
  %18 = getelementptr inbounds nuw i8, ptr %7, i64 24
  %19 = load ptr, ptr %18, align 8
  %20 = sext i32 %17 to i64
  %21 = getelementptr inbounds %struct.pg_atomic_uint64, ptr %19, i64 %20
  %22 = load volatile i64, ptr %21, align 8
  %23 = getelementptr inbounds nuw i8, ptr %7, i64 208
  %24 = load ptr, ptr %23, align 8
  %25 = tail call ptr @dsa_get_address(ptr noundef %24, i64 noundef %22) #16
  br label %26

26:                                               ; preds = %15, %12
  %.024 = phi ptr [ %14, %12 ], [ %25, %15 ]
  %.not2740.not = icmp eq ptr %.024, null
  br i1 %.not2740.not, label %.loopexit, label %.lr.ph

.lr.ph:                                           ; preds = %26
  %27 = getelementptr inbounds nuw i8, ptr %0, i64 272
  %28 = getelementptr inbounds nuw i8, ptr %1, i64 16
  %29 = icmp eq ptr %.fr50, null
  %30 = getelementptr inbounds nuw i8, ptr %1, i64 40
  %31 = getelementptr inbounds nuw i8, ptr %.fr50, i64 32
  %32 = getelementptr i8, ptr %7, i64 208
  br i1 %29, label %.lr.ph.split.us, label %.lr.ph.split

.lr.ph.split.us:                                  ; preds = %.lr.ph
  %33 = getelementptr inbounds nuw i8, ptr %.024, i64 8
  %34 = load i32, ptr %33, align 8
  %35 = icmp eq i32 %34, %11
  br i1 %35, label %._crit_edge, label %.critedge.us

36:                                               ; preds = %.critedge.us
  %37 = getelementptr inbounds nuw i8, ptr %44, i64 8
  %38 = load i32, ptr %37, align 8
  %39 = icmp eq i32 %38, %11
  br i1 %39, label %._crit_edge, label %.critedge.us, !llvm.loop !26

._crit_edge:                                      ; preds = %36, %.lr.ph.split.us
  %.12541.us.lcssa = phi ptr [ %.024, %.lr.ph.split.us ], [ %44, %36 ]
  %40 = getelementptr inbounds nuw i8, ptr %.12541.us.lcssa, i64 16
  %41 = load ptr, ptr %27, align 8
  %42 = tail call ptr @ExecStoreMinimalTuple(ptr noundef nonnull %40, ptr noundef %41, i1 noundef zeroext false) #16
  store ptr %42, ptr %28, align 8
  %43 = load ptr, ptr %30, align 8
  tail call void @MemoryContextReset(ptr noundef %43) #16
  br label %.loopexit32

.critedge.us:                                     ; preds = %.lr.ph.split.us, %36
  %.12541.us47 = phi ptr [ %44, %36 ], [ %.024, %.lr.ph.split.us ]
  %.val29.us = load ptr, ptr %32, align 8
  %.125.val.us = load i64, ptr %.12541.us47, align 8
  %44 = tail call ptr @dsa_get_address(ptr noundef %.val29.us, i64 noundef %.125.val.us) #16
  %.not27.us.not = icmp eq ptr %44, null
  br i1 %.not27.us.not, label %.loopexit, label %36, !llvm.loop !26

.lr.ph.split:                                     ; preds = %.lr.ph, %.critedge
  %.12541 = phi ptr [ %56, %.critedge ], [ %.024, %.lr.ph ]
  %45 = getelementptr inbounds nuw i8, ptr %.12541, i64 8
  %46 = load i32, ptr %45, align 8
  %47 = icmp eq i32 %46, %11
  br i1 %47, label %ExecQualAndReset.exit, label %.critedge

ExecQualAndReset.exit:                            ; preds = %.lr.ph.split
  %48 = getelementptr inbounds nuw i8, ptr %.12541, i64 16
  %49 = load ptr, ptr %27, align 8
  %50 = call ptr @ExecStoreMinimalTuple(ptr noundef nonnull %48, ptr noundef %49, i1 noundef zeroext false) #16
  store ptr %50, ptr %28, align 8
  call void @llvm.lifetime.start.p0(i64 1, ptr nonnull %3) #16
  %51 = load ptr, ptr %30, align 8
  %52 = load ptr, ptr @CurrentMemoryContext, align 8
  store ptr %51, ptr @CurrentMemoryContext, align 8
  %53 = load ptr, ptr %31, align 8
  %54 = call i64 %53(ptr noundef nonnull %.fr50, ptr noundef nonnull %1, ptr noundef nonnull %3) #16
  store ptr %52, ptr @CurrentMemoryContext, align 8
  %.not31 = icmp eq i64 %54, 0
  call void @llvm.lifetime.end.p0(i64 1, ptr nonnull %3) #16
  %55 = load ptr, ptr %30, align 8
  call void @MemoryContextReset(ptr noundef %55) #16
  br i1 %.not31, label %.critedge, label %.loopexit32

.loopexit32:                                      ; preds = %ExecQualAndReset.exit, %._crit_edge
  %.12539 = phi ptr [ %.12541.us.lcssa, %._crit_edge ], [ %.12541, %ExecQualAndReset.exit ]
  store ptr %.12539, ptr %8, align 8
  br label %.loopexit

.critedge:                                        ; preds = %ExecQualAndReset.exit, %.lr.ph.split
  %.val29 = load ptr, ptr %32, align 8
  %.125.val = load i64, ptr %.12541, align 8
  %56 = call ptr @dsa_get_address(ptr noundef %.val29, i64 noundef %.125.val) #16
  %.not27.not = icmp eq ptr %56, null
  br i1 %.not27.not, label %.loopexit, label %.lr.ph.split, !llvm.loop !26

.loopexit:                                        ; preds = %.critedge, %.critedge.us, %26, %.loopexit32
  %.not2735 = phi i1 [ true, %.loopexit32 ], [ false, %26 ], [ false, %.critedge.us ], [ false, %.critedge ]
  ret i1 %.not2735
}